target datalayout = "e-m:e-p270:32:32-p271:32:32-p272:64:64-i64:64-i128:128-f80:128-n8:16:32:64-S128"
target triple = "x86_64-pc-linux-gnu"

%struct.ssl3_enc_method = type { ptr, ptr, ptr }
%struct.ssl_st = type { i32, i16, i16, ptr, ptr, ptr, ptr, ptr, i32, i32, ptr, ptr, i32, i32, ptr, ptr, ptr, ptr, ptr, ptr, ptr, ptr, i32, i32, [32 x i8], ptr, ptr, ptr, ptr, ptr, ptr, ptr, i64, %struct.crypto_ex_data_st, ptr, i32, i32, i32, i32, i16, ptr, i32, i64, ptr, ptr, ptr, ptr, ptr, ptr, i32, i32, ptr, ptr, i8, i8, i32 }
%struct.crypto_ex_data_st = type { ptr }
%struct.ssl3_state_st = type { [8 x i8], [8 x i8], [32 x i8], [32 x i8], i8, i8, %struct.ssl3_buffer_st, %struct.ssl3_buffer_st, %struct.ssl3_record_st, i8, i32, i32, i32, i32, ptr, ptr, %struct.env_md_ctx_st, %struct.env_md_ctx_st, i8, i32, [2 x i8], i32, i8, i8, ptr, ptr, ptr, %struct.anon, [64 x i8], i8, [64 x i8], i8, i32, i32, ptr, i64, ptr, i64, i8, [64 x i8] }
%struct.ssl3_buffer_st = type { ptr, i16, i16, i16 }
%struct.ssl3_record_st = type { i8, i16, ptr }
%struct.env_md_ctx_st = type { ptr, ptr, ptr, ptr }
%struct.anon = type { [64 x i8], i32, [64 x i8], i32, i64, i32, ptr, i32, i32, %union.anon, %union.anon.0, i8, i32, ptr, ptr, i64, ptr, i8, i8, i8, i8, i32, i8, ptr, i64, i8, ptr, i8, i8, i8, %struct.ssl_ecdh_ctx_st, ptr, i16 }
%union.anon = type { i32 }
%union.anon.0 = type { i16 }
%struct.ssl_ecdh_ctx_st = type { ptr, ptr }
%struct.ssl_session_st = type { i32, i32, i32, i32, [48 x i8], i32, [32 x i8], i32, [32 x i8], ptr, ptr, ptr, i64, i64, i64, ptr, %struct.crypto_ex_data_st, ptr, ptr, ptr, ptr, i64, i64, ptr, i64, ptr, [32 x i8], [64 x i8], i32, i32, i8 }

@.str.4 = private unnamed_addr constant [16 x i8] c"client finished\00", align 1
@.str.5 = private unnamed_addr constant [16 x i8] c"server finished\00", align 1

; Function Attrs: nounwind uwtable
define internal i32 @tls1_final_finish_mac(ptr noundef %0, i32 noundef %1, ptr noundef %2) #0 {
  %4 = alloca i32, align 4
  %5 = alloca ptr, align 8
  %6 = alloca i32, align 4
  %7 = alloca ptr, align 8
  %8 = alloca ptr, align 8
  %9 = alloca i64, align 8
  %10 = alloca [64 x i8], align 16
  %11 = alloca i32, align 4
  %12 = alloca i32, align 4
  store ptr %0, ptr %5, align 8, !tbaa !6
  store i32 %1, ptr %6, align 4, !tbaa !11
  store ptr %2, ptr %7, align 8, !tbaa !57
  call void @llvm.lifetime.start.p0(i64 8, ptr %8) #7
  store ptr @.str.4, ptr %8, align 8, !tbaa !57
  call void @llvm.lifetime.start.p0(i64 8, ptr %9) #7
  store i64 15, ptr %9, align 8, !tbaa !53
  %13 = load i32, ptr %6, align 4, !tbaa !11
  %14 = icmp ne i32 %13, 0
  br i1 %14, label %15, label %16

15:                                               ; preds = %3
  store ptr @.str.5, ptr %8, align 8, !tbaa !57
  store i64 15, ptr %9, align 8, !tbaa !53
  br label %16

16:                                               ; preds = %15, %3
  call void @llvm.lifetime.start.p0(i64 64, ptr %10) #7
  call void @llvm.lifetime.start.p0(i64 4, ptr %11) #7
  %17 = load ptr, ptr %5, align 8, !tbaa !6
  %18 = getelementptr inbounds [64 x i8], ptr %10, i64 0, i64 0
  %19 = call i32 @tls1_handshake_digest(ptr noundef %17, ptr noundef %18, i64 noundef 64)
  store i32 %19, ptr %11, align 4, !tbaa !11
  %20 = load i32, ptr %11, align 4, !tbaa !11
  %21 = icmp slt i32 %20, 0
  br i1 %21, label %22, label %23

22:                                               ; preds = %16
  store i32 0, ptr %4, align 4
  store i32 1, ptr %12, align 4
  br label %53

23:                                               ; preds = %16
  %24 = load ptr, ptr %5, align 8, !tbaa !6
  %25 = getelementptr inbounds nuw %struct.ssl_st, ptr %24, i32 0, i32 14
  %26 = load ptr, ptr %25, align 8, !tbaa !14
  %27 = getelementptr inbounds nuw %struct.ssl3_state_st, ptr %26, i32 0, i32 26
  %28 = load ptr, ptr %27, align 8, !tbaa !68
  %29 = getelementptr inbounds nuw %struct.ssl3_enc_method, ptr %28, i32 0, i32 0
  %30 = load ptr, ptr %29, align 8, !tbaa !69
  %31 = load ptr, ptr %5, align 8, !tbaa !6
  %32 = load ptr, ptr %7, align 8, !tbaa !57
  %33 = load ptr, ptr %5, align 8, !tbaa !6
  %34 = getelementptr inbounds nuw %struct.ssl_st, ptr %33, i32 0, i32 25
  %35 = load ptr, ptr %34, align 8, !tbaa !63
  %36 = getelementptr inbounds nuw %struct.ssl_session_st, ptr %35, i32 0, i32 4
  %37 = getelementptr inbounds [48 x i8], ptr %36, i64 0, i64 0
  %38 = load ptr, ptr %5, align 8, !tbaa !6
  %39 = getelementptr inbounds nuw %struct.ssl_st, ptr %38, i32 0, i32 25
  %40 = load ptr, ptr %39, align 8, !tbaa !63
  %41 = getelementptr inbounds nuw %struct.ssl_session_st, ptr %40, i32 0, i32 3
  %42 = load i32, ptr %41, align 4, !tbaa !71
  %43 = sext i32 %42 to i64
  %44 = load ptr, ptr %8, align 8, !tbaa !57
  %45 = load i64, ptr %9, align 8, !tbaa !53
  %46 = getelementptr inbounds [64 x i8], ptr %10, i64 0, i64 0
  %47 = load i32, ptr %11, align 4, !tbaa !11
  %48 = sext i32 %47 to i64
  %49 = call i32 %30(ptr noundef %31, ptr noundef %32, i64 noundef 12, ptr noundef %37, i64 noundef %43, ptr noundef %44, i64 noundef %45, ptr noundef %46, i64 noundef %48, ptr noundef null, i64 noundef 0)
  %50 = icmp ne i32 %49, 0
  br i1 %50, label %52, label %51

51:                                               ; preds = %23
  store i32 0, ptr %4, align 4
  store i32 1, ptr %12, align 4
  br label %53

52:                                               ; preds = %23
  store i32 12, ptr %4, align 4
  store i32 1, ptr %12, align 4
  br label %53

53:                                               ; preds = %52, %51, %22
  call void @llvm.lifetime.end.p0(i64 4, ptr %11) #7
  call void @llvm.lifetime.end.p0(i64 64, ptr %10) #7
  call void @llvm.lifetime.end.p0(i64 8, ptr %9) #7
  call void @llvm.lifetime.end.p0(i64 8, ptr %8) #7
  %54 = load i32, ptr %4, align 4
  ret i32 %54
}