; Function Attrs: nounwind uwtable
define internal range(i32 0, 13) i32 @tls1_final_finish_mac(ptr noundef %0, i32 noundef %1, ptr noundef %2) #0 {
  %4 = alloca [64 x i8], align 16
  call void @llvm.lifetime.start.p0(i64 64, ptr nonnull %4) #8
  %5 = call i32 @tls1_handshake_digest(ptr noundef %0, ptr noundef nonnull %4, i64 noundef 64)
  %6 = icmp slt i32 %5, 0
  br i1 %6, label %21, label %7

7:                                                ; preds = %3
  %.not = icmp eq i32 %1, 0
  %spec.select = select i1 %.not, ptr @.str.4, ptr @.str.5
  %8 = getelementptr inbounds nuw i8, ptr %0, i64 80
  %9 = load ptr, ptr %8, align 8, !tbaa !6
  %10 = getelementptr inbounds nuw i8, ptr %9, i64 280
  %11 = load ptr, ptr %10, align 8, !tbaa !62
  %12 = load ptr, ptr %11, align 8, !tbaa !63
  %13 = getelementptr inbounds nuw i8, ptr %0, i64 184
  %14 = load ptr, ptr %13, align 8, !tbaa !56
  %15 = getelementptr inbounds nuw i8, ptr %14, i64 16
  %16 = getelementptr inbounds nuw i8, ptr %14, i64 12
  %17 = load i32, ptr %16, align 4, !tbaa !65
  %18 = sext i32 %17 to i64
  %19 = zext nneg i32 %5 to i64
  %20 = call i32 %12(ptr noundef %0, ptr noundef %2, i64 noundef 12, ptr noundef nonnull %15, i64 noundef %18, ptr noundef nonnull %spec.select, i64 noundef 15, ptr noundef nonnull %4, i64 noundef %19, ptr noundef null, i64 noundef 0) #8
  %.not14 = icmp eq i32 %20, 0
  %. = select i1 %.not14, i32 0, i32 12
  br label %21

21:                                               ; preds = %7, %3
  %.0 = phi i32 [ 0, %3 ], [ %., %7 ]
  call void @llvm.lifetime.end.p0(i64 64, ptr nonnull %4) #8
  ret i32 %.0
}